target datalayout = "e-m:e-p270:32:32-p271:32:32-p272:64:64-i64:64-i128:128-f80:128-n8:16:32:64-S128"
target triple = "x86_64-pc-linux-gnu"

@proto_git = internal global i32 0, align 4
@git_handle = internal global ptr null, align 8
@.str.26 = private unnamed_addr constant [11 x i8] c"media_type\00", align 1
@.str.27 = private unnamed_addr constant [44 x i8] c"application/x-git-upload-pack-advertisement\00", align 1
@.str.28 = private unnamed_addr constant [38 x i8] c"application/x-git-upload-pack-request\00", align 1
@.str.29 = private unnamed_addr constant [37 x i8] c"application/x-git-upload-pack-result\00", align 1
@.str.30 = private unnamed_addr constant [9 x i8] c"tcp.port\00", align 1

; Function Attrs: nounwind uwtable
define hidden void @proto_reg_handoff_git() #0 {
  %1 = alloca ptr, align 8
  %2 = alloca ptr, align 8
  %3 = alloca ptr, align 8
  %4 = load i32, ptr @proto_git, align 4
  %5 = call ptr @create_dissector_handle(ptr noundef @dissect_git_upload_pack_adv, i32 noundef %4)
  store ptr %5, ptr %1, align 8
  %6 = load i32, ptr @proto_git, align 4
  %7 = call ptr @create_dissector_handle(ptr noundef @dissect_git_upload_pack_req, i32 noundef %6)
  store ptr %7, ptr %2, align 8
  %8 = load i32, ptr @proto_git, align 4
  %9 = call ptr @create_dissector_handle(ptr noundef @dissect_git_upload_pack_res, i32 noundef %8)
  store ptr %9, ptr %3, align 8
  %10 = load ptr, ptr %1, align 8
  call void @dissector_add_string(ptr noundef @.str.26, ptr noundef @.str.27, ptr noundef %10)
  %11 = load ptr, ptr %2, align 8
  call void @dissector_add_string(ptr noundef @.str.26, ptr noundef @.str.28, ptr noundef %11)
  %12 = load ptr, ptr %3, align 8
  call void @dissector_add_string(ptr noundef @.str.26, ptr noundef @.str.29, ptr noundef %12)
  %13 = load ptr, ptr @git_handle, align 8
  call void @dissector_add_uint_with_preference(ptr noundef @.str.30, i32 noundef 9418, ptr noundef %13)
  ret void
}