; Function Attrs: nounwind uwtable
define hidden void @proto_reg_handoff_git() local_unnamed_addr #0 {
  %1 = load i32, ptr @proto_git, align 4
  %2 = tail call ptr @create_dissector_handle(ptr noundef nonnull @dissect_git_upload_pack_adv, i32 noundef %1) #4
  %3 = load i32, ptr @proto_git, align 4
  %4 = tail call ptr @create_dissector_handle(ptr noundef nonnull @dissect_git_upload_pack_req, i32 noundef %3) #4
  %5 = load i32, ptr @proto_git, align 4
  %6 = tail call ptr @create_dissector_handle(ptr noundef nonnull @dissect_git_upload_pack_res, i32 noundef %5) #4
  tail call void @dissector_add_string(ptr noundef nonnull @.str.26, ptr noundef nonnull @.str.27, ptr noundef %2) #4
  tail call void @dissector_add_string(ptr noundef nonnull @.str.26, ptr noundef nonnull @.str.28, ptr noundef %4) #4
  tail call void @dissector_add_string(ptr noundef nonnull @.str.26, ptr noundef nonnull @.str.29, ptr noundef %6) #4
  %7 = load ptr, ptr @git_handle, align 8
  tail call void @dissector_add_uint_with_preference(ptr noundef nonnull @.str.30, i32 noundef 9418, ptr noundef %7) #4
  ret void
}